target datalayout = "e-m:e-p270:32:32-p271:32:32-p272:64:64-i64:64-i128:128-f80:128-n8:16:32:64-S128"
target triple = "x86_64-pc-linux-gnu"

%"class.std::__cxx11::basic_string" = type { %"struct.std::__cxx11::basic_string<char>::_Alloc_hider", i64, %union.anon }
%"struct.std::__cxx11::basic_string<char>::_Alloc_hider" = type { ptr }
%union.anon = type { i64, [8 x i8] }
%"struct.faiss::IOWriter" = type { ptr, %"class.std::__cxx11::basic_string" }
%"class.std::vector" = type { %"struct.std::_Vector_base" }
%"struct.std::_Vector_base" = type { %"struct.std::_Vector_base<float, std::allocator<float>>::_Vector_impl" }
%"struct.std::_Vector_base<float, std::allocator<float>>::_Vector_impl" = type { %"struct.std::_Vector_base<float, std::allocator<float>>::_Vector_impl_data" }
%"struct.std::_Vector_base<float, std::allocator<float>>::_Vector_impl_data" = type { ptr, ptr, ptr }
%"struct.faiss::Quantizer" = type { ptr, i64, i64 }
%"struct.faiss::ClusteringParameters" = type { i32, i32, i8, i8, i8, i8, i8, i32, i32, i32, i64 }
%"class.std::vector.28" = type { %"struct.std::_Vector_base.29" }
%"struct.std::_Vector_base.29" = type { %"struct.std::_Vector_base<unsigned long, std::allocator<unsigned long>>::_Vector_impl" }
%"struct.std::_Vector_base<unsigned long, std::allocator<unsigned long>>::_Vector_impl" = type { %"struct.std::_Vector_base<unsigned long, std::allocator<unsigned long>>::_Vector_impl_data" }
%"struct.std::_Vector_base<unsigned long, std::allocator<unsigned long>>::_Vector_impl_data" = type { ptr, ptr, ptr }
%"class.std::vector.23" = type { %"struct.std::_Vector_base.24" }
%"struct.std::_Vector_base.24" = type { %"struct.std::_Vector_base<long, std::allocator<long>>::_Vector_impl" }
%"struct.std::_Vector_base<long, std::allocator<long>>::_Vector_impl" = type { %"struct.std::_Vector_base<long, std::allocator<long>>::_Vector_impl_data" }
%"struct.std::_Vector_base<long, std::allocator<long>>::_Vector_impl_data" = type { ptr, ptr, ptr }
%"class.std::vector.33" = type { %"struct.std::_Vector_base.34" }
%"struct.std::_Vector_base.34" = type { %"struct.std::_Vector_base<unsigned char, std::allocator<unsigned char>>::_Vector_impl" }
%"struct.std::_Vector_base<unsigned char, std::allocator<unsigned char>>::_Vector_impl" = type { %"struct.std::_Vector_base<unsigned char, std::allocator<unsigned char>>::_Vector_impl_data" }
%"struct.std::_Vector_base<unsigned char, std::allocator<unsigned char>>::_Vector_impl_data" = type { ptr, ptr, ptr }
%"struct.faiss::IndexFlatCodes" = type { %"struct.faiss::Index.base", i64, %"class.std::vector.33" }
%"struct.faiss::Index.base" = type <{ ptr, i32, [4 x i8], i64, i8, i8, [2 x i8], i32, float }>
%"struct.faiss::ResidualQuantizer" = type { %"struct.faiss::AdditiveQuantizer.base", i32, i32, i32, i32, i32, %"struct.faiss::ProgressiveDimClusteringParameters", ptr, %"class.std::vector", %"class.std::vector" }
%"struct.faiss::AdditiveQuantizer.base" = type <{ %"struct.faiss::Quantizer", i64, %"class.std::vector.28", %"class.std::vector", %"class.std::vector.28", i64, i64, i64, i8, i8, i8, [5 x i8], %"struct.faiss::IndexFlat1D", %"class.std::vector", i64, i32, float, float }>
%"struct.faiss::IndexFlat1D" = type { %"struct.faiss::IndexFlatL2", i8, %"class.std::vector.23" }
%"struct.faiss::IndexFlatL2" = type { %"struct.faiss::IndexFlat", %"class.std::vector" }
%"struct.faiss::IndexFlat" = type { %"struct.faiss::IndexFlatCodes" }
%"struct.faiss::ProgressiveDimClusteringParameters" = type <{ %"struct.faiss::ClusteringParameters", i32, i8, [3 x i8] }>

@.str.1 = private unnamed_addr constant [55 x i8] c"Error: '%s' failed: write error in %s: %zd != %zd (%s)\00", align 1
@.str.2 = private unnamed_addr constant [11 x i8] c"ret == (1)\00", align 1
@.str.3 = private unnamed_addr constant [116 x i8] c"generated/home/dtcxzyw/WorkSpace/Projects/compilers/llvm-opt-benchmark/bench/faiss/faiss/faiss/impl/index_write.cpp\00", align 1
@_ZTIN5faiss14FaissExceptionE = external constant ptr
@__PRETTY_FUNCTION__._ZN5faissL23write_ResidualQuantizerEPKNS_17ResidualQuantizerEPNS_8IOWriterE = private unnamed_addr constant [75 x i8] c"void faiss::write_ResidualQuantizer(const ResidualQuantizer *, IOWriter *)\00", align 1

; Function Attrs: mustprogress uwtable
define internal void @_ZN5faissL23write_ResidualQuantizerEPKNS_17ResidualQuantizerEPNS_8IOWriterE(ptr noundef %0, ptr noundef %1) #4 personality ptr @__gxx_personality_v0 {
  %3 = alloca ptr, align 8
  %4 = alloca ptr, align 8
  %5 = alloca i64, align 8
  %6 = alloca %"class.std::__cxx11::basic_string", align 8
  %7 = alloca i32, align 4
  %8 = alloca ptr, align 8
  %9 = alloca i32, align 4
  %10 = alloca i64, align 8
  %11 = alloca %"class.std::__cxx11::basic_string", align 8
  %12 = alloca i32, align 4
  store ptr %0, ptr %3, align 8
  store ptr %1, ptr %4, align 8
  %13 = load ptr, ptr %3, align 8
  %14 = load ptr, ptr %4, align 8
  call void @_ZN5faissL23write_AdditiveQuantizerEPKNS_17AdditiveQuantizerEPNS_8IOWriterE(ptr noundef %13, ptr noundef %14)
  %15 = load ptr, ptr %4, align 8
  %16 = load ptr, ptr %3, align 8
  %17 = getelementptr inbounds %"struct.faiss::ResidualQuantizer", ptr %16, i32 0, i32 1
  %18 = load ptr, ptr %15, align 8
  %19 = getelementptr inbounds ptr, ptr %18, i64 0
  %20 = load ptr, ptr %19, align 8
  %21 = call noundef i64 %20(ptr noundef nonnull align 8 dereferenceable(40) %15, ptr noundef %17, i64 noundef 4, i64 noundef 1)
  store i64 %21, ptr %5, align 8
  br label %22

22:                                               ; preds = %2
  %23 = load i64, ptr %5, align 8
  %24 = icmp eq i64 %23, 1
  br i1 %24, label %62, label %25

25:                                               ; preds = %22
  br label %26

26:                                               ; preds = %25
  call void @_ZNSt7__cxx1112basic_stringIcSt11char_traitsIcESaIcEEC1Ev(ptr noundef nonnull align 8 dereferenceable(32) %6) #3
  %27 = load ptr, ptr %4, align 8
  %28 = getelementptr inbounds %"struct.faiss::IOWriter", ptr %27, i32 0, i32 1
  %29 = call noundef ptr @_ZNKSt7__cxx1112basic_stringIcSt11char_traitsIcESaIcEE5c_strEv(ptr noundef nonnull align 8 dereferenceable(32) %28) #3
  %30 = load i64, ptr %5, align 8
  %31 = call ptr @__errno_location() #15
  %32 = load i32, ptr %31, align 4
  %33 = call ptr @strerror(i32 noundef %32) #3
  %34 = call i32 (ptr, i64, ptr, ...) @snprintf(ptr noundef null, i64 noundef 0, ptr noundef @.str.1, ptr noundef @.str.2, ptr noundef %29, i64 noundef %30, i64 noundef 1, ptr noundef %33) #3
  store i32 %34, ptr %7, align 4
  %35 = load i32, ptr %7, align 4
  %36 = add nsw i32 %35, 1
  %37 = sext i32 %36 to i64
  invoke void @_ZNSt7__cxx1112basic_stringIcSt11char_traitsIcESaIcEE6resizeEm(ptr noundef nonnull align 8 dereferenceable(32) %6, i64 noundef %37)
          to label %38 unwind label %52

38:                                               ; preds = %26
  %39 = invoke noundef nonnull align 1 dereferenceable(1) ptr @_ZNSt7__cxx1112basic_stringIcSt11char_traitsIcESaIcEEixEm(ptr noundef nonnull align 8 dereferenceable(32) %6, i64 noundef 0)
          to label %40 unwind label %52

40:                                               ; preds = %38
  %41 = call noundef i64 @_ZNKSt7__cxx1112basic_stringIcSt11char_traitsIcESaIcEE4sizeEv(ptr noundef nonnull align 8 dereferenceable(32) %6) #3
  %42 = load ptr, ptr %4, align 8
  %43 = getelementptr inbounds %"struct.faiss::IOWriter", ptr %42, i32 0, i32 1
  %44 = call noundef ptr @_ZNKSt7__cxx1112basic_stringIcSt11char_traitsIcESaIcEE5c_strEv(ptr noundef nonnull align 8 dereferenceable(32) %43) #3
  %45 = load i64, ptr %5, align 8
  %46 = call ptr @__errno_location() #15
  %47 = load i32, ptr %46, align 4
  %48 = call ptr @strerror(i32 noundef %47) #3
  %49 = call i32 (ptr, i64, ptr, ...) @snprintf(ptr noundef %39, i64 noundef %41, ptr noundef @.str.1, ptr noundef @.str.2, ptr noundef %44, i64 noundef %45, i64 noundef 1, ptr noundef %48) #3
  %50 = call ptr @__cxa_allocate_exception(i64 40) #3
  invoke void @_ZN5faiss14FaissExceptionC1ERKNSt7__cxx1112basic_stringIcSt11char_traitsIcESaIcEEEPKcSA_i(ptr noundef nonnull align 8 dereferenceable(40) %50, ptr noundef nonnull align 8 dereferenceable(32) %6, ptr noundef @__PRETTY_FUNCTION__._ZN5faissL23write_ResidualQuantizerEPKNS_17ResidualQuantizerEPNS_8IOWriterE, ptr noundef @.str.3, i32 noundef 192)
          to label %51 unwind label %56

51:                                               ; preds = %40
  invoke void @__cxa_throw(ptr %50, ptr @_ZTIN5faiss14FaissExceptionE, ptr @_ZN5faiss14FaissExceptionD2Ev) #16
          to label %118 unwind label %52

52:                                               ; preds = %51, %38, %26
  %53 = landingpad { ptr, i32 }
          cleanup
  %54 = extractvalue { ptr, i32 } %53, 0
  store ptr %54, ptr %8, align 8
  %55 = extractvalue { ptr, i32 } %53, 1
  store i32 %55, ptr %9, align 4
  br label %60

56:                                               ; preds = %40
  %57 = landingpad { ptr, i32 }
          cleanup
  %58 = extractvalue { ptr, i32 } %57, 0
  store ptr %58, ptr %8, align 8
  %59 = extractvalue { ptr, i32 } %57, 1
  store i32 %59, ptr %9, align 4
  call void @__cxa_free_exception(ptr %50) #3
  br label %60

60:                                               ; preds = %56, %52
  call void @_ZNSt7__cxx1112basic_stringIcSt11char_traitsIcESaIcEED1Ev(ptr noundef nonnull align 8 dereferenceable(32) %6) #3
  br label %113

61:                                               ; No predecessors!
  br label %62

62:                                               ; preds = %61, %22
  br label %63

63:                                               ; preds = %62
  %64 = load ptr, ptr %4, align 8
  %65 = load ptr, ptr %3, align 8
  %66 = getelementptr inbounds %"struct.faiss::ResidualQuantizer", ptr %65, i32 0, i32 3
  %67 = load ptr, ptr %64, align 8
  %68 = getelementptr inbounds ptr, ptr %67, i64 0
  %69 = load ptr, ptr %68, align 8
  %70 = call noundef i64 %69(ptr noundef nonnull align 8 dereferenceable(40) %64, ptr noundef %66, i64 noundef 4, i64 noundef 1)
  store i64 %70, ptr %10, align 8
  br label %71

71:                                               ; preds = %63
  %72 = load i64, ptr %10, align 8
  %73 = icmp eq i64 %72, 1
  br i1 %73, label %111, label %74

74:                                               ; preds = %71
  br label %75

75:                                               ; preds = %74
  call void @_ZNSt7__cxx1112basic_stringIcSt11char_traitsIcESaIcEEC1Ev(ptr noundef nonnull align 8 dereferenceable(32) %11) #3
  %76 = load ptr, ptr %4, align 8
  %77 = getelementptr inbounds %"struct.faiss::IOWriter", ptr %76, i32 0, i32 1
  %78 = call noundef ptr @_ZNKSt7__cxx1112basic_stringIcSt11char_traitsIcESaIcEE5c_strEv(ptr noundef nonnull align 8 dereferenceable(32) %77) #3
  %79 = load i64, ptr %10, align 8
  %80 = call ptr @__errno_location() #15
  %81 = load i32, ptr %80, align 4
  %82 = call ptr @strerror(i32 noundef %81) #3
  %83 = call i32 (ptr, i64, ptr, ...) @snprintf(ptr noundef null, i64 noundef 0, ptr noundef @.str.1, ptr noundef @.str.2, ptr noundef %78, i64 noundef %79, i64 noundef 1, ptr noundef %82) #3
  store i32 %83, ptr %12, align 4
  %84 = load i32, ptr %12, align 4
  %85 = add nsw i32 %84, 1
  %86 = sext i32 %85 to i64
  invoke void @_ZNSt7__cxx1112basic_stringIcSt11char_traitsIcESaIcEE6resizeEm(ptr noundef nonnull align 8 dereferenceable(32) %11, i64 noundef %86)
          to label %87 unwind label %101

87:                                               ; preds = %75
  %88 = invoke noundef nonnull align 1 dereferenceable(1) ptr @_ZNSt7__cxx1112basic_stringIcSt11char_traitsIcESaIcEEixEm(ptr noundef nonnull align 8 dereferenceable(32) %11, i64 noundef 0)
          to label %89 unwind label %101

89:                                               ; preds = %87
  %90 = call noundef i64 @_ZNKSt7__cxx1112basic_stringIcSt11char_traitsIcESaIcEE4sizeEv(ptr noundef nonnull align 8 dereferenceable(32) %11) #3
  %91 = load ptr, ptr %4, align 8
  %92 = getelementptr inbounds %"struct.faiss::IOWriter", ptr %91, i32 0, i32 1
  %93 = call noundef ptr @_ZNKSt7__cxx1112basic_stringIcSt11char_traitsIcESaIcEE5c_strEv(ptr noundef nonnull align 8 dereferenceable(32) %92) #3
  %94 = load i64, ptr %10, align 8
  %95 = call ptr @__errno_location() #15
  %96 = load i32, ptr %95, align 4
  %97 = call ptr @strerror(i32 noundef %96) #3
  %98 = call i32 (ptr, i64, ptr, ...) @snprintf(ptr noundef %88, i64 noundef %90, ptr noundef @.str.1, ptr noundef @.str.2, ptr noundef %93, i64 noundef %94, i64 noundef 1, ptr noundef %97) #3
  %99 = call ptr @__cxa_allocate_exception(i64 40) #3
  invoke void @_ZN5faiss14FaissExceptionC1ERKNSt7__cxx1112basic_stringIcSt11char_traitsIcESaIcEEEPKcSA_i(ptr noundef nonnull align 8 dereferenceable(40) %99, ptr noundef nonnull align 8 dereferenceable(32) %11, ptr noundef @__PRETTY_FUNCTION__._ZN5faissL23write_ResidualQuantizerEPKNS_17ResidualQuantizerEPNS_8IOWriterE, ptr noundef @.str.3, i32 noundef 193)
          to label %100 unwind label %105

100:                                              ; preds = %89
  invoke void @__cxa_throw(ptr %99, ptr @_ZTIN5faiss14FaissExceptionE, ptr @_ZN5faiss14FaissExceptionD2Ev) #16
          to label %118 unwind label %101

101:                                              ; preds = %100, %87, %75
  %102 = landingpad { ptr, i32 }
          cleanup
  %103 = extractvalue { ptr, i32 } %102, 0
  store ptr %103, ptr %8, align 8
  %104 = extractvalue { ptr, i32 } %102, 1
  store i32 %104, ptr %9, align 4
  br label %109

105:                                              ; preds = %89
  %106 = landingpad { ptr, i32 }
          cleanup
  %107 = extractvalue { ptr, i32 } %106, 0
  store ptr %107, ptr %8, align 8
  %108 = extractvalue { ptr, i32 } %106, 1
  store i32 %108, ptr %9, align 4
  call void @__cxa_free_exception(ptr %99) #3
  br label %109

109:                                              ; preds = %105, %101
  call void @_ZNSt7__cxx1112basic_stringIcSt11char_traitsIcESaIcEED1Ev(ptr noundef nonnull align 8 dereferenceable(32) %11) #3
  br label %113

110:                                              ; No predecessors!
  br label %111

111:                                              ; preds = %110, %71
  br label %112

112:                                              ; preds = %111
  ret void

113:                                              ; preds = %109, %60
  %114 = load ptr, ptr %8, align 8
  %115 = load i32, ptr %9, align 4
  %116 = insertvalue { ptr, i32 } poison, ptr %114, 0
  %117 = insertvalue { ptr, i32 } %116, i32 %115, 1
  resume { ptr, i32 } %117

118:                                              ; preds = %100, %51
  unreachable
}